target datalayout = "e-m:e-p270:32:32-p271:32:32-p272:64:64-i64:64-i128:128-f80:128-n8:16:32:64-S128"
target triple = "x86_64-pc-linux-gnu"

%"struct.vcpkg::Hash::(anonymous namespace)::ShaHasher" = type { %"struct.vcpkg::Hash::Hasher", %"struct.vcpkg::Hash::(anonymous namespace)::Sha256Algorithm", %"struct.std::array.22", i64, i64 }
%"struct.vcpkg::Hash::Hasher" = type { ptr }
%"struct.vcpkg::Hash::(anonymous namespace)::Sha256Algorithm" = type { [8 x i32] }
%"struct.std::array.22" = type { [64 x i8] }

; Function Attrs: mustprogress nounwind uwtable
define internal void @_ZN5vcpkg4Hash12_GLOBAL__N_115Sha256Algorithm5clearEv(ptr noundef nonnull align 4 dereferenceable(32) %0) #0 align 2 {
  %2 = alloca ptr, align 8
  store ptr %0, ptr %2, align 8
  %3 = load ptr, ptr %2, align 8
  %4 = getelementptr inbounds %"struct.vcpkg::Hash::(anonymous namespace)::Sha256Algorithm", ptr %3, i32 0, i32 0
  %5 = getelementptr inbounds [8 x i32], ptr %4, i64 0, i64 0
  store i32 1779033703, ptr %5, align 4
  %6 = getelementptr inbounds %"struct.vcpkg::Hash::(anonymous namespace)::Sha256Algorithm", ptr %3, i32 0, i32 0
  %7 = getelementptr inbounds [8 x i32], ptr %6, i64 0, i64 1
  store i32 -1150833019, ptr %7, align 4
  %8 = getelementptr inbounds %"struct.vcpkg::Hash::(anonymous namespace)::Sha256Algorithm", ptr %3, i32 0, i32 0
  %9 = getelementptr inbounds [8 x i32], ptr %8, i64 0, i64 2
  store i32 1013904242, ptr %9, align 4
  %10 = getelementptr inbounds %"struct.vcpkg::Hash::(anonymous namespace)::Sha256Algorithm", ptr %3, i32 0, i32 0
  %11 = getelementptr inbounds [8 x i32], ptr %10, i64 0, i64 3
  store i32 -1521486534, ptr %11, align 4
  %12 = getelementptr inbounds %"struct.vcpkg::Hash::(anonymous namespace)::Sha256Algorithm", ptr %3, i32 0, i32 0
  %13 = getelementptr inbounds [8 x i32], ptr %12, i64 0, i64 4
  store i32 1359893119, ptr %13, align 4
  %14 = getelementptr inbounds %"struct.vcpkg::Hash::(anonymous namespace)::Sha256Algorithm", ptr %3, i32 0, i32 0
  %15 = getelementptr inbounds [8 x i32], ptr %14, i64 0, i64 5
  store i32 -1694144372, ptr %15, align 4
  %16 = getelementptr inbounds %"struct.vcpkg::Hash::(anonymous namespace)::Sha256Algorithm", ptr %3, i32 0, i32 0
  %17 = getelementptr inbounds [8 x i32], ptr %16, i64 0, i64 6
  store i32 528734635, ptr %17, align 4
  %18 = getelementptr inbounds %"struct.vcpkg::Hash::(anonymous namespace)::Sha256Algorithm", ptr %3, i32 0, i32 0
  %19 = getelementptr inbounds [8 x i32], ptr %18, i64 0, i64 7
  store i32 1541459225, ptr %19, align 4
  ret void
}

; Function Attrs: mustprogress nounwind uwtable
define internal void @_ZN5vcpkg4Hash12_GLOBAL__N_19ShaHasherINS1_15Sha256AlgorithmEE5clearEv(ptr noundef nonnull align 8 dereferenceable(120) %0) unnamed_addr #0 align 2 {
  %2 = alloca ptr, align 8
  store ptr %0, ptr %2, align 8
  %3 = load ptr, ptr %2, align 8
  %4 = getelementptr inbounds %"struct.vcpkg::Hash::(anonymous namespace)::ShaHasher", ptr %3, i32 0, i32 1
  call void @_ZN5vcpkg4Hash12_GLOBAL__N_115Sha256Algorithm5clearEv(ptr noundef nonnull align 4 dereferenceable(32) %4) #16
  %5 = getelementptr inbounds %"struct.vcpkg::Hash::(anonymous namespace)::ShaHasher", ptr %3, i32 0, i32 3
  store i64 0, ptr %5, align 8
  %6 = getelementptr inbounds %"struct.vcpkg::Hash::(anonymous namespace)::ShaHasher", ptr %3, i32 0, i32 4
  store i64 0, ptr %6, align 8
  ret void
}