; Function Attrs: mustprogress nofree norecurse nosync nounwind willreturn memory(argmem: write) uwtable
define internal void @_ZN5vcpkg4Hash12_GLOBAL__N_19ShaHasherINS1_15Sha256AlgorithmEE5clearEv(ptr nocapture noundef nonnull writeonly align 8 dereferenceable(120) %0) unnamed_addr #12 align 2 {
  %2 = getelementptr inbounds i8, ptr %0, i64 8
  store <4 x i32> <i32 1779033703, i32 -1150833019, i32 1013904242, i32 -1521486534>, ptr %2, align 8
  %3 = getelementptr inbounds i8, ptr %0, i64 24
  store <4 x i32> <i32 1359893119, i32 -1694144372, i32 528734635, i32 1541459225>, ptr %3, align 8
  %4 = getelementptr inbounds i8, ptr %0, i64 104
  tail call void @llvm.memset.p0.i64(ptr noundef nonnull align 8 dereferenceable(16) %4, i8 0, i64 16, i1 false)
  ret void
}